(dp0
F0.0
(dp1
F0.0
(lp2
(lp3
I1102
aI0
aI317
aI0
aa(lp4
I1401
aI0
aI18
aI0
aa(lp5
I1103
aI0
aI316
aI0
aa(lp6
I1053
aI0
aI366
aI0
aa(lp7
I1053
aI0
aI366
aI0
aasF0.25
(lp8
(lp9
I1
aI317
aI0
aI1101
aa(lp10
I0
aI18
aI0
aI1401
aa(lp11
I3
aI315
aI1
aI1100
aa(lp12
I3
aI366
aI0
aI1050
aa(lp13
I1
aI366
aI0
aI1052
aasF0.1
(lp14
(lp15
I68
aI302
aI15
aI1034
aa(lp16
I74
aI11
aI7
aI1327
aa(lp17
I63
aI306
aI10
aI1040
aa(lp18
I70
aI363
aI3
aI983
aa(lp19
I72
aI364
aI2
aI981
aasF0.2
(lp20
(lp21
I2
aI315
aI2
aI1100
aa(lp22
I1
aI18
aI0
aI1400
aa(lp23
I9
aI313
aI3
aI1094
aa(lp24
I11
aI366
aI0
aI1042
aa(lp25
I3
aI366
aI0
aI1050
aasF0.4
(lp26
(lp27
I0
aI317
aI0
aI1102
aa(lp28
I0
aI18
aI0
aI1401
aa(lp29
I0
aI316
aI0
aI1103
aa(lp30
I0
aI366
aI0
aI1053
aa(lp31
I0
aI366
aI0
aI1053
aasF0.30000000000000004
(lp32
(lp33
I0
aI317
aI0
aI1102
aa(lp34
I0
aI18
aI0
aI1401
aa(lp35
I1
aI316
aI0
aI1102
aa(lp36
I0
aI366
aI0
aI1053
aa(lp37
I0
aI366
aI0
aI1053
aasF0.15000000000000002
(lp38
(lp39
I22
aI312
aI5
aI1080
aa(lp40
I23
aI15
aI3
aI1378
aa(lp41
I24
aI310
aI6
aI1079
aa(lp42
I31
aI363
aI3
aI1022
aa(lp43
I24
aI366
aI0
aI1029
aasF0.05
(lp44
(lp45
I1070
aI8
aI309
aI32
aa(lp46
I1368
aI6
aI12
aI33
aa(lp47
I1060
aI10
aI306
aI43
aa(lp48
I1007
aI2
aI364
aI46
aa(lp49
I1019
aI1
aI365
aI34
aasF0.45
(lp50
(lp51
I0
aI317
aI0
aI1102
aa(lp52
I0
aI18
aI0
aI1401
aa(lp53
I0
aI316
aI0
aI1103
aa(lp54
I0
aI366
aI0
aI1053
aa(lp55
I0
aI366
aI0
aI1053
aasF0.35000000000000003
(lp56
(lp57
I0
aI317
aI0
aI1102
aa(lp58
I0
aI18
aI0
aI1401
aa(lp59
I0
aI316
aI0
aI1103
aa(lp60
I0
aI366
aI0
aI1053
aa(lp61
I0
aI366
aI0
aI1053
aassF0.25
(dp62
F0.0
(lp63
(lp64
I544
aI0
aI875
aI0
aa(lp65
I400
aI0
aI1019
aI0
aa(lp66
I321
aI0
aI1098
aI0
aa(lp67
I138
aI0
aI1281
aI0
aa(lp68
I372
aI0
aI1047
aI0
aasF0.25
(lp69
(lp70
I1
aI875
aI0
aI543
aa(lp71
I0
aI1019
aI0
aI400
aa(lp72
I2
aI1096
aI2
aI319
aa(lp73
I2
aI1280
aI1
aI136
aa(lp74
I1
aI1047
aI0
aI371
aasF0.1
(lp75
(lp76
I52
aI844
aI31
aI492
aa(lp77
I47
aI985
aI34
aI353
aa(lp78
I35
aI1060
aI38
aI286
aa(lp79
I32
aI1240
aI41
aI106
aa(lp80
I44
aI1017
aI30
aI328
aasF0.2
(lp81
(lp82
I2
aI873
aI2
aI542
aa(lp83
I0
aI1018
aI1
aI400
aa(lp84
I5
aI1091
aI7
aI316
aa(lp85
I4
aI1274
aI7
aI134
aa(lp86
I1
aI1045
aI2
aI371
aasF0.4
(lp87
(lp88
I0
aI875
aI0
aI544
aa(lp89
I0
aI1019
aI0
aI400
aa(lp90
I0
aI1098
aI0
aI321
aa(lp91
I0
aI1281
aI0
aI138
aa(lp92
I0
aI1047
aI0
aI372
aasF0.30000000000000004
(lp93
(lp94
I0
aI875
aI0
aI544
aa(lp95
I0
aI1019
aI0
aI400
aa(lp96
I1
aI1098
aI0
aI320
aa(lp97
I0
aI1281
aI0
aI138
aa(lp98
I0
aI1047
aI0
aI372
aasF0.15000000000000002
(lp99
(lp100
I17
aI865
aI10
aI527
aa(lp101
I13
aI1006
aI13
aI387
aa(lp102
I12
aI1080
aI18
aI309
aa(lp103
I15
aI1262
aI19
aI123
aa(lp104
I11
aI1034
aI13
aI361
aasF0.05
(lp105
(lp106
I520
aI16
aI859
aI24
aa(lp107
I376
aI15
aI1004
aI24
aa(lp108
I290
aI22
aI1076
aI31
aa(lp109
I123
aI33
aI1248
aI15
aa(lp110
I350
aI13
aI1034
aI22
aasF0.45
(lp111
(lp112
I0
aI875
aI0
aI544
aa(lp113
I0
aI1019
aI0
aI400
aa(lp114
I0
aI1098
aI0
aI321
aa(lp115
I0
aI1281
aI0
aI138
aa(lp116
I0
aI1047
aI0
aI372
aasF0.35000000000000003
(lp117
(lp118
I0
aI875
aI0
aI544
aa(lp119
I0
aI1019
aI0
aI400
aa(lp120
I0
aI1098
aI0
aI321
aa(lp121
I0
aI1281
aI0
aI138
aa(lp122
I0
aI1047
aI0
aI372
aassF0.5
(dp123
F0.0
(lp124
(lp125
I219
aI0
aI1200
aI0
aa(lp126
I145
aI0
aI1274
aI0
aa(lp127
I120
aI0
aI1299
aI0
aa(lp128
I9
aI0
aI1410
aI0
aa(lp129
I172
aI0
aI1247
aI0
aasF0.25
(lp130
(lp131
I0
aI1199
aI1
aI219
aa(lp132
I0
aI1274
aI0
aI145
aa(lp133
I1
aI1296
aI3
aI119
aa(lp134
I0
aI1407
aI3
aI9
aa(lp135
I0
aI1246
aI1
aI172
aasF0.1
(lp136
(lp137
I31
aI1148
aI52
aI188
aa(lp138
I24
aI1217
aI57
aI121
aa(lp139
I14
aI1240
aI59
aI106
aa(lp140
I4
aI1341
aI69
aI5
aa(lp141
I27
aI1200
aI47
aI145
aasF0.2
(lp142
(lp143
I1
aI1197
aI3
aI218
aa(lp144
I0
aI1273
aI1
aI145
aa(lp145
I1
aI1288
aI11
aI119
aa(lp146
I0
aI1399
aI11
aI9
aa(lp147
I0
aI1244
aI3
aI172
aasF0.4
(lp148
(lp149
I0
aI1200
aI0
aI219
aa(lp150
I0
aI1274
aI0
aI145
aa(lp151
I0
aI1299
aI0
aI120
aa(lp152
I0
aI1410
aI0
aI9
aa(lp153
I0
aI1247
aI0
aI172
aasF0.30000000000000004
(lp154
(lp155
I0
aI1200
aI0
aI219
aa(lp156
I0
aI1274
aI0
aI145
aa(lp157
I1
aI1299
aI0
aI119
aa(lp158
I0
aI1410
aI0
aI9
aa(lp159
I0
aI1247
aI0
aI172
aasF0.15000000000000002
(lp160
(lp161
I9
aI1182
aI18
aI210
aa(lp162
I6
aI1254
aI20
aI139
aa(lp163
I3
aI1272
aI27
aI117
aa(lp164
I2
aI1378
aI32
aI7
aa(lp165
I7
aI1230
aI17
aI165
aasF0.05
(lp166
(lp167
I204
aI25
aI1175
aI15
aa(lp168
I132
aI26
aI1248
aI13
aa(lp169
I102
aI35
aI1264
aI18
aa(lp170
I8
aI47
aI1363
aI1
aa(lp171
I158
aI21
aI1226
aI14
aasF0.45
(lp172
(lp173
I0
aI1200
aI0
aI219
aa(lp174
I0
aI1274
aI0
aI145
aa(lp175
I0
aI1299
aI0
aI120
aa(lp176
I0
aI1410
aI0
aI9
aa(lp177
I0
aI1247
aI0
aI172
aasF0.35000000000000003
(lp178
(lp179
I0
aI1200
aI0
aI219
aa(lp180
I0
aI1274
aI0
aI145
aa(lp181
I0
aI1299
aI0
aI120
aa(lp182
I0
aI1410
aI0
aI9
aa(lp183
I0
aI1247
aI0
aI172
aass.